; Function Attrs: mustprogress uwtable
define dso_local void @_ZN26cmCTestMultiProcessHandler18CreateTestCostListEv(ptr noundef nonnull align 8 dereferenceable(870) %0) local_unnamed_addr #3 align 2 {
  %2 = getelementptr inbounds i8, ptr %0, i64 728
  %3 = load i64, ptr %2, align 8
  %4 = icmp ugt i64 %3, 1
  br i1 %4, label %5, label %6

5:                                                ; preds = %1
  tail call void @_ZN26cmCTestMultiProcessHandler26CreateParallelTestCostListEv(ptr noundef nonnull align 8 dereferenceable(870) %0)
  br label %7

6:                                                ; preds = %1
  tail call void @_ZN26cmCTestMultiProcessHandler24CreateSerialTestCostListEv(ptr noundef nonnull align 8 dereferenceable(870) %0)
  br label %7

7:                                                ; preds = %6, %5
  ret void
}